; Function Attrs: mustprogress nounwind uwtable
define internal void @"_ZN4llvm12function_refIFvRNS_15SmallVectorImplISt4pairIjPNS_6MDNodeEEEEEE11callback_fnIZ25LLVMGlobalCopyAllMetadataE3$_0EEvlS7_"(i64 noundef %0, ptr noundef nonnull align 8 dereferenceable(16) %1) #0 align 2 {
  %3 = inttoptr i64 %0 to ptr
  %4 = tail call noundef i64 @_ZNK4llvm15SmallVectorBaseIjE4sizeEv(ptr noundef nonnull align 8 dereferenceable(16) %1) #35
  %5 = getelementptr inbounds nuw i8, ptr %1, i64 8
  store i32 0, ptr %5, align 8
  %6 = load ptr, ptr %3, align 8
  %7 = load ptr, ptr %6, align 8
  %8 = load i8, ptr %7, align 8
  %9 = icmp ult i8 %8, 29
  br i1 %9, label %20, label %10

10:                                               ; preds = %2
  %11 = getelementptr inbounds nuw i8, ptr %7, i64 48
  %12 = load ptr, ptr %11, align 8
  %13 = icmp ne ptr %12, null
  %14 = getelementptr inbounds nuw i8, ptr %7, i64 4
  %15 = load i32, ptr %14, align 4
  %16 = and i32 %15, 536870912
  %17 = icmp ne i32 %16, 0
  %18 = select i1 %13, i1 true, i1 %17
  br i1 %18, label %19, label %"_ZZ25LLVMGlobalCopyAllMetadataENK3$_0clERN4llvm15SmallVectorImplISt4pairIjPNS0_6MDNodeEEEE.exit"

19:                                               ; preds = %10
  tail call void @_ZNK4llvm11Instruction18getAllMetadataImplERNS_15SmallVectorImplISt4pairIjPNS_6MDNodeEEEE(ptr noundef nonnull align 8 dereferenceable(72) %7, ptr noundef nonnull align 8 dereferenceable(16) %1) #35
  br label %"_ZZ25LLVMGlobalCopyAllMetadataENK3$_0clERN4llvm15SmallVectorImplISt4pairIjPNS0_6MDNodeEEEE.exit"

20:                                               ; preds = %2
  tail call void @_ZNK4llvm5Value14getAllMetadataERNS_15SmallVectorImplISt4pairIjPNS_6MDNodeEEEE(ptr noundef nonnull align 8 dereferenceable(24) %7, ptr noundef nonnull align 8 dereferenceable(16) %1) #35
  br label %"_ZZ25LLVMGlobalCopyAllMetadataENK3$_0clERN4llvm15SmallVectorImplISt4pairIjPNS0_6MDNodeEEEE.exit"

"_ZZ25LLVMGlobalCopyAllMetadataENK3$_0clERN4llvm15SmallVectorImplISt4pairIjPNS0_6MDNodeEEEE.exit": ; preds = %10, %19, %20
  ret void
}